; ModuleID = 'source-C-CXX/4/578.c'
source_filename = "source-C-CXX/4/578.c"
target datalayout = "e-m:e-p270:32:32-p271:32:32-p272:64:64-i64:64-f80:128-n8:16:32:64-S128"
target triple = "x86_64-pc-linux-gnu"

@.str = private unnamed_addr constant [6 x i8] c"error\00", align 1
@.str.1 = private unnamed_addr constant [4 x i8] c"yes\00", align 1
@.str.2 = private unnamed_addr constant [3 x i8] c"no\00", align 1

; Function Attrs: nounwind sspstrong uwtable
define dso_local i32 @main() local_unnamed_addr #0 {
  %1 = alloca [500 x i8], align 16
  %2 = alloca [500 x i8], align 16
  %3 = alloca [2 x i8], align 1
  %4 = getelementptr inbounds [500 x i8], [500 x i8]* %1, i64 0, i64 0
  call void @llvm.lifetime.start.p0i8(i64 500, i8* nonnull %4) #6
  %5 = getelementptr inbounds [500 x i8], [500 x i8]* %2, i64 0, i64 0
  call void @llvm.lifetime.start.p0i8(i64 500, i8* nonnull %5) #6
  %6 = getelementptr inbounds [2 x i8], [2 x i8]* %3, i64 0, i64 0
  call void @llvm.lifetime.start.p0i8(i64 2, i8* nonnull %6) #6
  %7 = call i32 (i8*, ...) bitcast (i32 (...)* @gets to i32 (i8*, ...)*)(i8* nonnull %6) #6
  %8 = call double @strtod(i8* nocapture nonnull %6, i8** null) #6
  %9 = call i32 (i8*, ...) bitcast (i32 (...)* @gets to i32 (i8*, ...)*)(i8* nonnull %4) #6
  %10 = call i32 (i8*, ...) bitcast (i32 (...)* @gets to i32 (i8*, ...)*)(i8* nonnull %5) #6
  %11 = call i64 @strlen(i8* noundef nonnull %4) #7
  %12 = uitofp i64 %11 to double
  %13 = call i64 @strlen(i8* noundef nonnull %5) #7
  %14 = uitofp i64 %13 to double
  %15 = fcmp une double %12, %14
  br i1 %15, label %55, label %16

16:                                               ; preds = %0
  %17 = icmp eq i64 %11, 0
  br i1 %17, label %50, label %18

18:                                               ; preds = %16, %27
  %19 = phi i64 [ %29, %27 ], [ 0, %16 ]
  %20 = phi i32 [ %28, %27 ], [ 0, %16 ]
  %21 = getelementptr inbounds [500 x i8], [500 x i8]* %1, i64 0, i64 %19
  %22 = load i8, i8* %21, align 1, !tbaa !5
  switch i8 %22, label %26 [
    i8 65, label %23
    i8 84, label %23
    i8 67, label %23
    i8 71, label %23
  ]

23:                                               ; preds = %18, %18, %18, %18
  %24 = getelementptr inbounds [500 x i8], [500 x i8]* %2, i64 0, i64 %19
  %25 = load i8, i8* %24, align 1, !tbaa !5
  switch i8 %25, label %26 [
    i8 65, label %27
    i8 84, label %27
    i8 67, label %27
    i8 71, label %27
  ]

26:                                               ; preds = %23, %18
  br label %27

27:                                               ; preds = %23, %23, %23, %23, %26
  %28 = phi i32 [ 1, %26 ], [ %20, %23 ], [ %20, %23 ], [ %20, %23 ], [ %20, %23 ]
  %29 = add nuw i64 %19, 1
  %30 = trunc i64 %29 to i32
  %31 = sitofp i32 %30 to double
  %32 = fcmp olt double %31, %12
  br i1 %32, label %18, label %33, !llvm.loop !8

33:                                               ; preds = %27
  %34 = icmp eq i32 %28, 0
  br i1 %34, label %35, label %55

35:                                               ; preds = %33
  br i1 %17, label %50, label %36

36:                                               ; preds = %35, %36
  %37 = phi i64 [ %46, %36 ], [ 0, %35 ]
  %38 = phi double [ %45, %36 ], [ 0.000000e+00, %35 ]
  %39 = getelementptr inbounds [500 x i8], [500 x i8]* %1, i64 0, i64 %37
  %40 = load i8, i8* %39, align 1, !tbaa !5
  %41 = getelementptr inbounds [500 x i8], [500 x i8]* %2, i64 0, i64 %37
  %42 = load i8, i8* %41, align 1, !tbaa !5
  %43 = icmp eq i8 %40, %42
  %44 = fadd double %38, 1.000000e+00
  %45 = select i1 %43, double %44, double %38
  %46 = add nuw i64 %37, 1
  %47 = trunc i64 %46 to i32
  %48 = sitofp i32 %47 to double
  %49 = fcmp olt double %48, %12
  br i1 %49, label %36, label %50, !llvm.loop !10

50:                                               ; preds = %36, %16, %35
  %51 = phi double [ 0.000000e+00, %35 ], [ 0.000000e+00, %16 ], [ %45, %36 ]
  %52 = fdiv double %51, %12
  %53 = fcmp ogt double %52, %8
  %54 = select i1 %53, i8* getelementptr inbounds ([4 x i8], [4 x i8]* @.str.1, i64 0, i64 0), i8* getelementptr inbounds ([3 x i8], [3 x i8]* @.str.2, i64 0, i64 0)
  br label %55

55:                                               ; preds = %50, %33, %0
  %56 = phi i8* [ getelementptr inbounds ([6 x i8], [6 x i8]* @.str, i64 0, i64 0), %0 ], [ getelementptr inbounds ([6 x i8], [6 x i8]* @.str, i64 0, i64 0), %33 ], [ %54, %50 ]
  %57 = call i32 (i8*, ...) @printf(i8* nonnull dereferenceable(1) %56)
  call void @llvm.lifetime.end.p0i8(i64 2, i8* nonnull %6) #6
  call void @llvm.lifetime.end.p0i8(i64 500, i8* nonnull %5) #6
  call void @llvm.lifetime.end.p0i8(i64 500, i8* nonnull %4) #6
  ret i32 0
}

; Function Attrs: argmemonly mustprogress nofree nosync nounwind willreturn
declare void @llvm.lifetime.start.p0i8(i64 immarg, i8* nocapture) #1

declare i32 @gets(...) local_unnamed_addr #2

; Function Attrs: argmemonly mustprogress nofree nounwind readonly willreturn
declare i64 @strlen(i8* nocapture) local_unnamed_addr #3

; Function Attrs: nofree nounwind
declare noundef i32 @printf(i8* nocapture noundef readonly, ...) local_unnamed_addr #4

; Function Attrs: argmemonly mustprogress nofree nosync nounwind willreturn
declare void @llvm.lifetime.end.p0i8(i64 immarg, i8* nocapture) #1

; Function Attrs: mustprogress nofree nounwind willreturn
declare double @strtod(i8* readonly, i8** nocapture) local_unnamed_addr #5


!llvm.module.flags = !{!0, !1, !2, !3}
!llvm.ident = !{!4}

!0 = !{i32 1, !"wchar_size", i32 4}
!1 = !{i32 7, !"PIC Level", i32 2}
!2 = !{i32 7, !"PIE Level", i32 2}
!3 = !{i32 7, !"uwtable", i32 1}
!4 = !{!"clang version 13.0.0"}
!5 = !{!6, !6, i64 0}
!6 = !{!"omnipotent char", !7, i64 0}
!7 = !{!"Simple C/C++ TBAA"}
!8 = distinct !{!8, !9}
!9 = !{!"llvm.loop.mustprogress"}
!10 = distinct !{!10, !9}
